target datalayout = "e-m:e-p270:32:32-p271:32:32-p272:64:64-i64:64-i128:128-f80:128-n8:16:32:64-S128"
target triple = "x86_64-pc-linux-gnu"

%struct._object = type { %union.anon, ptr }
%union.anon = type { i64 }
%struct.PyBytesObject = type { %struct.PyVarObject, i64, [1 x i8] }
%struct.PyVarObject = type { %struct._object, i64 }
%struct._typeobject = type { %struct.PyVarObject, ptr, i64, i64, ptr, i64, ptr, ptr, ptr, ptr, ptr, ptr, ptr, ptr, ptr, ptr, ptr, ptr, ptr, i64, ptr, ptr, ptr, ptr, i64, ptr, ptr, ptr, ptr, ptr, ptr, ptr, ptr, ptr, i64, ptr, ptr, ptr, ptr, ptr, ptr, ptr, ptr, ptr, ptr, ptr, i32, ptr, ptr, i8, i16 }
%struct.fileio = type { %struct._object, i32, i8, i8, ptr, ptr, ptr }
%struct.anon = type { i32, i32 }
%struct._io_state = type { i32, ptr, ptr, ptr, ptr, ptr, ptr, ptr, ptr, ptr, ptr, ptr, ptr, ptr, ptr, ptr }
%struct._heaptypeobject = type { %struct._typeobject, %struct.PyAsyncMethods, %struct.PyNumberMethods, %struct.PyMappingMethods, %struct.PySequenceMethods, %struct.PyBufferProcs, ptr, ptr, ptr, ptr, ptr, ptr, ptr, %struct._specialization_cache }
%struct.PyAsyncMethods = type { ptr, ptr, ptr, ptr }
%struct.PyNumberMethods = type { ptr, ptr, ptr, ptr, ptr, ptr, ptr, ptr, ptr, ptr, ptr, ptr, ptr, ptr, ptr, ptr, ptr, ptr, ptr, ptr, ptr, ptr, ptr, ptr, ptr, ptr, ptr, ptr, ptr, ptr, ptr, ptr, ptr, ptr, ptr, ptr }
%struct.PyMappingMethods = type { ptr, ptr, ptr }
%struct.PySequenceMethods = type { ptr, ptr, ptr, ptr, ptr, ptr, ptr, ptr, ptr, ptr }
%struct.PyBufferProcs = type { ptr, ptr }
%struct._specialization_cache = type { ptr, i32, ptr }
%struct.PyModuleObject = type { %struct._object, ptr, ptr, ptr, ptr, ptr }

@.str.34 = private unnamed_addr constant [8 x i8] c"reading\00", align 1
@_Py_NoneStruct = external global %struct._object, align 8
@PyExc_ValueError = external global ptr, align 8
@.str.35 = private unnamed_addr constant [29 x i8] c"I/O operation on closed file\00", align 1
@.str.36 = private unnamed_addr constant [21 x i8] c"File not open for %s\00", align 1

; Function Attrs: alwaysinline nounwind uwtable
define internal i32 @_Py_IsImmortal(ptr noundef %0) #4 {
  %2 = alloca ptr, align 8
  store ptr %0, ptr %2, align 8, !tbaa !4
  %3 = load ptr, ptr %2, align 8, !tbaa !4
  %4 = getelementptr inbounds nuw %struct._object, ptr %3, i32 0, i32 0
  %5 = getelementptr inbounds nuw %struct.anon, ptr %4, i32 0, i32 0
  %6 = load i32, ptr %5, align 8, !tbaa !41
  %7 = icmp slt i32 %6, 0
  %8 = zext i1 %7 to i32
  ret i32 %8
}

; Function Attrs: inlinehint nounwind uwtable
define internal ptr @_PyType_GetModuleState(ptr noundef %0) #3 {
  %2 = alloca ptr, align 8
  %3 = alloca ptr, align 8
  %4 = alloca ptr, align 8
  store ptr %0, ptr %2, align 8, !tbaa !19
  call void @llvm.lifetime.start.p0(i64 8, ptr %3) #9
  %5 = load ptr, ptr %2, align 8, !tbaa !19
  store ptr %5, ptr %3, align 8, !tbaa !55
  call void @llvm.lifetime.start.p0(i64 8, ptr %4) #9
  %6 = load ptr, ptr %3, align 8, !tbaa !55
  %7 = getelementptr inbounds nuw %struct._heaptypeobject, ptr %6, i32 0, i32 10
  %8 = load ptr, ptr %7, align 8, !tbaa !57
  store ptr %8, ptr %4, align 8, !tbaa !15
  %9 = load ptr, ptr %4, align 8, !tbaa !15
  %10 = getelementptr inbounds nuw %struct.PyModuleObject, ptr %9, i32 0, i32 3
  %11 = load ptr, ptr %10, align 8, !tbaa !66
  call void @llvm.lifetime.end.p0(i64 8, ptr %4) #9
  call void @llvm.lifetime.end.p0(i64 8, ptr %3) #9
  ret ptr %11
}

; Function Attrs: alwaysinline nounwind uwtable
define internal void @Py_DECREF(ptr noundef %0) #4 {
  %2 = alloca ptr, align 8
  store ptr %0, ptr %2, align 8, !tbaa !4
  %3 = load ptr, ptr %2, align 8, !tbaa !4
  %4 = call i32 @_Py_IsImmortal(ptr noundef %3)
  %5 = icmp ne i32 %4, 0
  br i1 %5, label %6, label %7

6:                                                ; preds = %1
  br label %16

7:                                                ; preds = %1
  %8 = load ptr, ptr %2, align 8, !tbaa !4
  %9 = getelementptr inbounds nuw %struct._object, ptr %8, i32 0, i32 0
  %10 = getelementptr inbounds nuw %struct.anon, ptr %9, i32 0, i32 0
  %11 = load i32, ptr %10, align 8, !tbaa !41
  %12 = add i32 %11, -1
  store i32 %12, ptr %10, align 8, !tbaa !41
  %13 = icmp eq i32 %12, 0
  br i1 %13, label %14, label %16

14:                                               ; preds = %7
  %15 = load ptr, ptr %2, align 8, !tbaa !4
  call void @_Py_Dealloc(ptr noundef %15)
  br label %16

16:                                               ; preds = %6, %14, %7
  ret void
}

; Function Attrs: inlinehint nounwind uwtable
define internal ptr @PyBytes_AS_STRING(ptr noundef %0) #3 {
  %2 = alloca ptr, align 8
  store ptr %0, ptr %2, align 8, !tbaa !4
  %3 = load ptr, ptr %2, align 8, !tbaa !4
  %4 = getelementptr inbounds nuw %struct.PyBytesObject, ptr %3, i32 0, i32 2
  %5 = getelementptr inbounds [1 x i8], ptr %4, i64 0, i64 0
  ret ptr %5
}

; Function Attrs: nounwind uwtable
define internal ptr @err_mode(ptr noundef %0, ptr noundef %1) #0 {
  %3 = alloca ptr, align 8
  %4 = alloca ptr, align 8
  store ptr %0, ptr %3, align 8, !tbaa !48
  store ptr %1, ptr %4, align 8, !tbaa !30
  %5 = load ptr, ptr %3, align 8, !tbaa !48
  %6 = getelementptr inbounds nuw %struct._io_state, ptr %5, i32 0, i32 1
  %7 = load ptr, ptr %6, align 8, !tbaa !50
  %8 = load ptr, ptr %4, align 8, !tbaa !30
  %9 = call ptr (ptr, ptr, ...) @PyErr_Format(ptr noundef %7, ptr noundef @.str.36, ptr noundef %8)
  ret ptr %9
}

; Function Attrs: inlinehint nounwind uwtable
define internal ptr @get_io_state_by_cls(ptr noundef %0) #3 {
  %2 = alloca ptr, align 8
  %3 = alloca ptr, align 8
  store ptr %0, ptr %2, align 8, !tbaa !19
  call void @llvm.lifetime.start.p0(i64 8, ptr %3) #9
  %4 = load ptr, ptr %2, align 8, !tbaa !19
  %5 = call ptr @_PyType_GetModuleState(ptr noundef %4)
  store ptr %5, ptr %3, align 8, !tbaa !15
  %6 = load ptr, ptr %3, align 8, !tbaa !15
  call void @llvm.lifetime.end.p0(i64 8, ptr %3) #9
  ret ptr %6
}

; Function Attrs: nounwind uwtable
define internal ptr @err_closed() #0 {
  %1 = load ptr, ptr @PyExc_ValueError, align 8, !tbaa !4
  call void @PyErr_SetString(ptr noundef %1, ptr noundef @.str.35)
  ret ptr null
}

; Function Attrs: nounwind uwtable
define internal ptr @_io_FileIO_read_impl(ptr noundef %0, ptr noundef %1, i64 noundef %2) #0 {
  %4 = alloca ptr, align 8
  %5 = alloca ptr, align 8
  %6 = alloca ptr, align 8
  %7 = alloca i64, align 8
  %8 = alloca ptr, align 8
  %9 = alloca i64, align 8
  %10 = alloca ptr, align 8
  %11 = alloca i32, align 4
  %12 = alloca ptr, align 8
  %13 = alloca i32, align 4
  %14 = alloca ptr, align 8
  %15 = alloca ptr, align 8
  store ptr %0, ptr %5, align 8, !tbaa !15
  store ptr %1, ptr %6, align 8, !tbaa !19
  store i64 %2, ptr %7, align 8, !tbaa !35
  call void @llvm.lifetime.start.p0(i64 8, ptr %8) #9
  call void @llvm.lifetime.start.p0(i64 8, ptr %9) #9
  call void @llvm.lifetime.start.p0(i64 8, ptr %10) #9
  %16 = load ptr, ptr %5, align 8, !tbaa !15
  %17 = getelementptr inbounds nuw %struct.fileio, ptr %16, i32 0, i32 1
  %18 = load i32, ptr %17, align 8, !tbaa !9
  %19 = icmp slt i32 %18, 0
  br i1 %19, label %20, label %22

20:                                               ; preds = %3
  %21 = call ptr @err_closed()
  store ptr %21, ptr %4, align 8
  store i32 1, ptr %11, align 4
  br label %94

22:                                               ; preds = %3
  %23 = load ptr, ptr %5, align 8, !tbaa !15
  %24 = getelementptr inbounds nuw %struct.fileio, ptr %23, i32 0, i32 2
  %25 = load i8, ptr %24, align 4
  %26 = lshr i8 %25, 1
  %27 = and i8 %26, 1
  %28 = zext i8 %27 to i32
  %29 = icmp ne i32 %28, 0
  br i1 %29, label %35, label %30

30:                                               ; preds = %22
  call void @llvm.lifetime.start.p0(i64 8, ptr %12) #9
  %31 = load ptr, ptr %6, align 8, !tbaa !19
  %32 = call ptr @get_io_state_by_cls(ptr noundef %31)
  store ptr %32, ptr %12, align 8, !tbaa !48
  %33 = load ptr, ptr %12, align 8, !tbaa !48
  %34 = call ptr @err_mode(ptr noundef %33, ptr noundef @.str.34)
  store ptr %34, ptr %4, align 8
  store i32 1, ptr %11, align 4
  call void @llvm.lifetime.end.p0(i64 8, ptr %12) #9
  br label %94

35:                                               ; preds = %22
  %36 = load i64, ptr %7, align 8, !tbaa !35
  %37 = icmp slt i64 %36, 0
  br i1 %37, label %38, label %41

38:                                               ; preds = %35
  %39 = load ptr, ptr %5, align 8, !tbaa !15
  %40 = call ptr @_io_FileIO_readall_impl(ptr noundef %39)
  store ptr %40, ptr %4, align 8
  store i32 1, ptr %11, align 4
  br label %94

41:                                               ; preds = %35
  %42 = load i64, ptr %7, align 8, !tbaa !35
  %43 = icmp sgt i64 %42, 9223372036854775807
  br i1 %43, label %44, label %45

44:                                               ; preds = %41
  store i64 9223372036854775807, ptr %7, align 8, !tbaa !35
  br label %45

45:                                               ; preds = %44, %41
  %46 = load i64, ptr %7, align 8, !tbaa !35
  %47 = call ptr @PyBytes_FromStringAndSize(ptr noundef null, i64 noundef %46)
  store ptr %47, ptr %10, align 8, !tbaa !4
  %48 = load ptr, ptr %10, align 8, !tbaa !4
  %49 = icmp eq ptr %48, null
  br i1 %49, label %50, label %51

50:                                               ; preds = %45
  store ptr null, ptr %4, align 8
  store i32 1, ptr %11, align 4
  br label %94

51:                                               ; preds = %45
  %52 = load ptr, ptr %10, align 8, !tbaa !4
  %53 = call ptr @PyBytes_AS_STRING(ptr noundef %52)
  store ptr %53, ptr %8, align 8, !tbaa !30
  %54 = load ptr, ptr %5, align 8, !tbaa !15
  %55 = getelementptr inbounds nuw %struct.fileio, ptr %54, i32 0, i32 1
  %56 = load i32, ptr %55, align 8, !tbaa !9
  %57 = load ptr, ptr %8, align 8, !tbaa !30
  %58 = load i64, ptr %7, align 8, !tbaa !35
  %59 = call i64 @_Py_read(i32 noundef %56, ptr noundef %57, i64 noundef %58)
  store i64 %59, ptr %9, align 8, !tbaa !35
  %60 = load i64, ptr %9, align 8, !tbaa !35
  %61 = icmp eq i64 %60, -1
  br i1 %61, label %62, label %71

62:                                               ; preds = %51
  call void @llvm.lifetime.start.p0(i64 4, ptr %13) #9
  %63 = call ptr @__errno_location() #11
  %64 = load i32, ptr %63, align 4, !tbaa !31
  store i32 %64, ptr %13, align 4, !tbaa !31
  %65 = load ptr, ptr %10, align 8, !tbaa !4
  call void @Py_DECREF(ptr noundef %65)
  %66 = load i32, ptr %13, align 4, !tbaa !31
  %67 = icmp eq i32 %66, 11
  br i1 %67, label %68, label %69

68:                                               ; preds = %62
  call void @PyErr_Clear()
  store ptr @_Py_NoneStruct, ptr %4, align 8
  store i32 1, ptr %11, align 4
  br label %70

69:                                               ; preds = %62
  store ptr null, ptr %4, align 8
  store i32 1, ptr %11, align 4
  br label %70

70:                                               ; preds = %69, %68
  call void @llvm.lifetime.end.p0(i64 4, ptr %13) #9
  br label %94

71:                                               ; preds = %51
  %72 = load i64, ptr %9, align 8, !tbaa !35
  %73 = load i64, ptr %7, align 8, !tbaa !35
  %74 = icmp ne i64 %72, %73
  br i1 %74, label %75, label %92

75:                                               ; preds = %71
  %76 = load i64, ptr %9, align 8, !tbaa !35
  %77 = call i32 @_PyBytes_Resize(ptr noundef %10, i64 noundef %76)
  %78 = icmp slt i32 %77, 0
  br i1 %78, label %79, label %91

79:                                               ; preds = %75
  br label %80

80:                                               ; preds = %79
  call void @llvm.lifetime.start.p0(i64 8, ptr %14) #9
  store ptr %10, ptr %14, align 8, !tbaa !33
  call void @llvm.lifetime.start.p0(i64 8, ptr %15) #9
  %81 = load ptr, ptr %14, align 8, !tbaa !33
  %82 = load ptr, ptr %81, align 8, !tbaa !4
  store ptr %82, ptr %15, align 8, !tbaa !4
  %83 = load ptr, ptr %15, align 8, !tbaa !4
  %84 = icmp ne ptr %83, null
  br i1 %84, label %85, label %88

85:                                               ; preds = %80
  %86 = load ptr, ptr %14, align 8, !tbaa !33
  store ptr null, ptr %86, align 8, !tbaa !4
  %87 = load ptr, ptr %15, align 8, !tbaa !4
  call void @Py_DECREF(ptr noundef %87)
  br label %88

88:                                               ; preds = %85, %80
  call void @llvm.lifetime.end.p0(i64 8, ptr %15) #9
  call void @llvm.lifetime.end.p0(i64 8, ptr %14) #9
  br label %89

89:                                               ; preds = %88
  br label %90

90:                                               ; preds = %89
  store ptr null, ptr %4, align 8
  store i32 1, ptr %11, align 4
  br label %94

91:                                               ; preds = %75
  br label %92

92:                                               ; preds = %91, %71
  %93 = load ptr, ptr %10, align 8, !tbaa !4
  store ptr %93, ptr %4, align 8
  store i32 1, ptr %11, align 4
  br label %94

94:                                               ; preds = %92, %90, %70, %50, %38, %30, %20
  call void @llvm.lifetime.end.p0(i64 8, ptr %10) #9
  call void @llvm.lifetime.end.p0(i64 8, ptr %9) #9
  call void @llvm.lifetime.end.p0(i64 8, ptr %8) #9
  %95 = load ptr, ptr %4, align 8
  ret ptr %95
}

; Function Attrs: nounwind uwtable
define internal ptr @_io_FileIO_read(ptr noundef %0, ptr noundef %1, ptr noundef %2, i64 noundef %3, ptr noundef %4) #0 {
  %6 = alloca ptr, align 8
  %7 = alloca ptr, align 8
  %8 = alloca ptr, align 8
  %9 = alloca i64, align 8
  %10 = alloca ptr, align 8
  %11 = alloca ptr, align 8
  %12 = alloca [1 x ptr], align 8
  %13 = alloca i64, align 8
  store ptr %0, ptr %6, align 8, !tbaa !4
  store ptr %1, ptr %7, align 8, !tbaa !19
  store ptr %2, ptr %8, align 8, !tbaa !33
  store i64 %3, ptr %9, align 8, !tbaa !35
  store ptr %4, ptr %10, align 8, !tbaa !4
  call void @llvm.lifetime.start.p0(i64 8, ptr %11) #9
  store ptr null, ptr %11, align 8, !tbaa !4
  call void @llvm.lifetime.start.p0(i64 8, ptr %12) #9
  call void @llvm.lifetime.start.p0(i64 8, ptr %13) #9
  store i64 -1, ptr %13, align 8, !tbaa !35
  %14 = load ptr, ptr %10, align 8, !tbaa !4
  %15 = icmp eq ptr %14, null
  br i1 %15, label %16, label %27

16:                                               ; preds = %5
  %17 = load i64, ptr %9, align 8, !tbaa !35
  %18 = icmp sle i64 0, %17
  br i1 %18, label %19, label %27

19:                                               ; preds = %16
  %20 = load i64, ptr %9, align 8, !tbaa !35
  %21 = icmp sle i64 %20, 1
  br i1 %21, label %22, label %27

22:                                               ; preds = %19
  %23 = load ptr, ptr %8, align 8, !tbaa !33
  %24 = icmp ne ptr %23, null
  br i1 %24, label %25, label %27

25:                                               ; preds = %22
  %26 = load ptr, ptr %8, align 8, !tbaa !33
  br label %33

27:                                               ; preds = %22, %19, %16, %5
  %28 = load ptr, ptr %8, align 8, !tbaa !33
  %29 = load i64, ptr %9, align 8, !tbaa !35
  %30 = load ptr, ptr %10, align 8, !tbaa !4
  %31 = getelementptr inbounds [1 x ptr], ptr %12, i64 0, i64 0
  %32 = call ptr @_PyArg_UnpackKeywords(ptr noundef %28, i64 noundef %29, ptr noundef null, ptr noundef %30, ptr noundef @_io_FileIO_read._parser, i32 noundef 0, i32 noundef 1, i32 noundef 0, i32 noundef 0, ptr noundef %31)
  br label %33

33:                                               ; preds = %27, %25
  %34 = phi ptr [ %26, %25 ], [ %32, %27 ]
  store ptr %34, ptr %8, align 8, !tbaa !33
  %35 = load ptr, ptr %8, align 8, !tbaa !33
  %36 = icmp ne ptr %35, null
  br i1 %36, label %38, label %37

37:                                               ; preds = %33
  br label %55

38:                                               ; preds = %33
  %39 = load i64, ptr %9, align 8, !tbaa !35
  %40 = icmp slt i64 %39, 1
  br i1 %40, label %41, label %42

41:                                               ; preds = %38
  br label %50

42:                                               ; preds = %38
  %43 = load ptr, ptr %8, align 8, !tbaa !33
  %44 = getelementptr ptr, ptr %43, i64 0
  %45 = load ptr, ptr %44, align 8, !tbaa !4
  %46 = call i32 @_Py_convert_optional_to_ssize_t(ptr noundef %45, ptr noundef %13)
  %47 = icmp ne i32 %46, 0
  br i1 %47, label %49, label %48

48:                                               ; preds = %42
  br label %55

49:                                               ; preds = %42
  br label %50

50:                                               ; preds = %49, %41
  %51 = load ptr, ptr %6, align 8, !tbaa !4
  %52 = load ptr, ptr %7, align 8, !tbaa !19
  %53 = load i64, ptr %13, align 8, !tbaa !35
  %54 = call ptr @_io_FileIO_read_impl(ptr noundef %51, ptr noundef %52, i64 noundef %53)
  store ptr %54, ptr %11, align 8, !tbaa !4
  br label %55

55:                                               ; preds = %50, %48, %37
  %56 = load ptr, ptr %11, align 8, !tbaa !4
  call void @llvm.lifetime.end.p0(i64 8, ptr %13) #9
  call void @llvm.lifetime.end.p0(i64 8, ptr %12) #9
  call void @llvm.lifetime.end.p0(i64 8, ptr %11) #9
  ret ptr %56
}