; Function Attrs: nounwind uwtable
define internal ptr @_io_FileIO_read(ptr noundef readonly captures(none) %0, ptr noundef readonly captures(none) %1, ptr noundef %2, i64 noundef %3, ptr noundef %4) #1 {
  %6 = alloca ptr, align 8
  %7 = alloca [1 x ptr], align 8
  %8 = alloca i64, align 8
  call void @llvm.lifetime.start.p0(i64 8, ptr nonnull %7) #10
  call void @llvm.lifetime.start.p0(i64 8, ptr nonnull %8) #10
  store i64 -1, ptr %8, align 8, !tbaa !40
  %9 = icmp eq ptr %4, null
  %10 = icmp ult i64 %3, 2
  %or.cond3 = and i1 %10, %9
  %11 = icmp ne ptr %2, null
  %or.cond5 = and i1 %11, %or.cond3
  br i1 %or.cond5, label %.thread, label %12

12:                                               ; preds = %5
  %13 = call ptr @_PyArg_UnpackKeywords(ptr noundef %2, i64 noundef %3, ptr noundef null, ptr noundef %4, ptr noundef nonnull @_io_FileIO_read._parser, i32 noundef 0, i32 noundef 1, i32 noundef 0, i32 noundef 0, ptr noundef nonnull %7) #10
  %.not = icmp eq ptr %13, null
  br i1 %.not, label %68, label %.thread

.thread:                                          ; preds = %5, %12
  %14 = phi ptr [ %13, %12 ], [ %2, %5 ]
  %15 = icmp slt i64 %3, 1
  br i1 %15, label %19, label %16

16:                                               ; preds = %.thread
  %17 = load ptr, ptr %14, align 8, !tbaa !21
  %18 = call i32 @_Py_convert_optional_to_ssize_t(ptr noundef %17, ptr noundef nonnull %8) #10
  %.not20 = icmp eq i32 %18, 0
  br i1 %.not20, label %68, label %._crit_edge

._crit_edge:                                      ; preds = %16
  %.pre = load i64, ptr %8, align 8, !tbaa !40
  br label %19

19:                                               ; preds = %._crit_edge, %.thread
  %20 = phi i64 [ %.pre, %._crit_edge ], [ -1, %.thread ]
  call void @llvm.lifetime.start.p0(i64 8, ptr nonnull %6) #10
  %21 = getelementptr inbounds nuw i8, ptr %0, i64 16
  %22 = load i32, ptr %21, align 8, !tbaa !4
  %23 = icmp slt i32 %22, 0
  br i1 %23, label %24, label %26

24:                                               ; preds = %19
  %25 = load ptr, ptr @PyExc_ValueError, align 8, !tbaa !21
  call void @PyErr_SetString(ptr noundef %25, ptr noundef nonnull @.str.35) #10
  br label %_io_FileIO_read_impl.exit

26:                                               ; preds = %19
  %27 = getelementptr inbounds nuw i8, ptr %0, i64 20
  %28 = load i8, ptr %27, align 4
  %29 = and i8 %28, 2
  %.not.i = icmp eq i8 %29, 0
  br i1 %.not.i, label %30, label %35

30:                                               ; preds = %26
  %31 = getelementptr i8, ptr %1, i64 888
  %.val.i = load ptr, ptr %31, align 8, !tbaa !49
  %32 = getelementptr i8, ptr %.val.i, i64 32
  %.val.val.i = load ptr, ptr %32, align 8, !tbaa !57
  %33 = getelementptr i8, ptr %.val.val.i, i64 8
  %.val29.i = load ptr, ptr %33, align 8, !tbaa !60
  %34 = call ptr (ptr, ptr, ...) @PyErr_Format(ptr noundef %.val29.i, ptr noundef nonnull @.str.36, ptr noundef nonnull @.str.34) #10
  br label %_io_FileIO_read_impl.exit

35:                                               ; preds = %26
  %36 = icmp slt i64 %20, 0
  br i1 %36, label %37, label %39

37:                                               ; preds = %35
  %38 = call fastcc ptr @_io_FileIO_readall_impl(ptr noundef nonnull readonly %0)
  br label %_io_FileIO_read_impl.exit

39:                                               ; preds = %35
  %40 = call ptr @PyBytes_FromStringAndSize(ptr noundef null, i64 noundef %20) #10
  store ptr %40, ptr %6, align 8, !tbaa !21
  %41 = icmp eq ptr %40, null
  br i1 %41, label %_io_FileIO_read_impl.exit, label %42

42:                                               ; preds = %39
  %43 = getelementptr inbounds nuw i8, ptr %40, i64 32
  %44 = load i32, ptr %21, align 8, !tbaa !4
  %45 = call i64 @_Py_read(i32 noundef %44, ptr noundef nonnull %43, i64 noundef %20) #10
  %46 = icmp eq i64 %45, -1
  br i1 %46, label %47, label %57

47:                                               ; preds = %42
  %48 = tail call ptr @__errno_location() #12
  %49 = load i32, ptr %48, align 4, !tbaa !43
  %50 = load i32, ptr %40, align 8, !tbaa !22
  %.not.i26.i = icmp sgt i32 %50, -1
  br i1 %.not.i26.i, label %51, label %Py_DECREF.exit27.i

51:                                               ; preds = %47
  %52 = add nsw i32 %50, -1
  store i32 %52, ptr %40, align 8, !tbaa !22
  %53 = icmp eq i32 %52, 0
  br i1 %53, label %54, label %Py_DECREF.exit27.i

54:                                               ; preds = %51
  call void @_Py_Dealloc(ptr noundef nonnull %40) #10
  br label %Py_DECREF.exit27.i

Py_DECREF.exit27.i:                               ; preds = %54, %51, %47
  %55 = icmp eq i32 %49, 11
  br i1 %55, label %56, label %_io_FileIO_read_impl.exit

56:                                               ; preds = %Py_DECREF.exit27.i
  call void @PyErr_Clear() #10
  br label %_io_FileIO_read_impl.exit

57:                                               ; preds = %42
  %.not24.i = icmp eq i64 %45, %20
  br i1 %.not24.i, label %_io_FileIO_read_impl.exit, label %58

58:                                               ; preds = %57
  %59 = call i32 @_PyBytes_Resize(ptr noundef nonnull %6, i64 noundef %45) #10
  %60 = icmp slt i32 %59, 0
  %.pre.i = load ptr, ptr %6, align 8, !tbaa !21
  br i1 %60, label %61, label %_io_FileIO_read_impl.exit

61:                                               ; preds = %58
  %.not25.i = icmp eq ptr %.pre.i, null
  br i1 %.not25.i, label %_io_FileIO_read_impl.exit, label %62

62:                                               ; preds = %61
  store ptr null, ptr %6, align 8, !tbaa !21
  %63 = load i32, ptr %.pre.i, align 8, !tbaa !22
  %.not.i.i = icmp sgt i32 %63, -1
  br i1 %.not.i.i, label %64, label %_io_FileIO_read_impl.exit

64:                                               ; preds = %62
  %65 = add nsw i32 %63, -1
  store i32 %65, ptr %.pre.i, align 8, !tbaa !22
  %66 = icmp eq i32 %65, 0
  br i1 %66, label %67, label %_io_FileIO_read_impl.exit

67:                                               ; preds = %64
  call void @_Py_Dealloc(ptr noundef nonnull %.pre.i) #10
  br label %_io_FileIO_read_impl.exit

_io_FileIO_read_impl.exit:                        ; preds = %24, %30, %37, %39, %Py_DECREF.exit27.i, %56, %57, %58, %61, %62, %64, %67
  %.0.i = phi ptr [ null, %24 ], [ %38, %37 ], [ %34, %30 ], [ null, %39 ], [ @_Py_NoneStruct, %56 ], [ null, %Py_DECREF.exit27.i ], [ null, %61 ], [ null, %62 ], [ null, %64 ], [ null, %67 ], [ %.pre.i, %58 ], [ %40, %57 ]
  call void @llvm.lifetime.end.p0(i64 8, ptr nonnull %6) #10
  br label %68

68:                                               ; preds = %16, %12, %_io_FileIO_read_impl.exit
  %.0 = phi ptr [ %.0.i, %_io_FileIO_read_impl.exit ], [ null, %16 ], [ null, %12 ]
  call void @llvm.lifetime.end.p0(i64 8, ptr nonnull %8) #10
  call void @llvm.lifetime.end.p0(i64 8, ptr nonnull %7) #10
  ret ptr %.0
}